; Function Attrs: nounwind uwtable
define ptr @l_Lake_collectArgs___rarg(ptr noundef %0, ptr noundef %1, ptr noundef %2, ptr noundef %3) #0 {
  %5 = getelementptr inbounds nuw i8, ptr %0, i64 16
  %6 = load ptr, ptr %5, align 8, !tbaa !11
  %7 = ptrtoint ptr %6 to i64
  %8 = and i64 %7, 1
  %.not = icmp eq i64 %8, 0
  br i1 %.not, label %9, label %lean_inc.exit22

9:                                                ; preds = %4
  %.val.i = load i32, ptr %6, align 4, !tbaa !4
  %10 = icmp sgt i32 %.val.i, 0
  br i1 %10, label %11, label %13, !prof !9

11:                                               ; preds = %9
  %12 = add nuw i32 %.val.i, 1
  store i32 %12, ptr %6, align 4, !tbaa !4
  br label %lean_inc.exit22

13:                                               ; preds = %9
  %.not.i = icmp eq i32 %.val.i, 0
  br i1 %.not.i, label %lean_inc.exit22, label %14

14:                                               ; preds = %13
  tail call void @lean_inc_ref_cold(ptr noundef nonnull %6) #3
  br label %lean_inc.exit22

lean_inc.exit22:                                  ; preds = %14, %13, %11, %4
  %15 = getelementptr inbounds nuw i8, ptr %1, i64 24
  %16 = load ptr, ptr %15, align 8, !tbaa !11
  %17 = ptrtoint ptr %16 to i64
  %18 = and i64 %17, 1
  %.not29 = icmp eq i64 %18, 0
  br i1 %.not29, label %19, label %lean_inc.exit21

19:                                               ; preds = %lean_inc.exit22
  %.val.i23 = load i32, ptr %16, align 4, !tbaa !4
  %20 = icmp sgt i32 %.val.i23, 0
  br i1 %20, label %21, label %23, !prof !9

21:                                               ; preds = %19
  %22 = add nuw i32 %.val.i23, 1
  store i32 %22, ptr %16, align 4, !tbaa !4
  br label %lean_inc.exit21

23:                                               ; preds = %19
  %.not.i24 = icmp eq i32 %.val.i23, 0
  br i1 %.not.i24, label %lean_inc.exit21, label %24

24:                                               ; preds = %23
  tail call void @lean_inc_ref_cold(ptr noundef nonnull %16) #3
  br label %lean_inc.exit21

lean_inc.exit21:                                  ; preds = %24, %23, %21, %lean_inc.exit22
  %25 = load ptr, ptr @l_Lake_takeArg_x3f___rarg___closed__1, align 8, !tbaa !11
  %26 = tail call ptr @lean_apply_2(ptr noundef %16, ptr noundef nonnull inttoptr (i64 1 to ptr), ptr noundef %25) #3
  br i1 %.not, label %27, label %lean_inc.exit

27:                                               ; preds = %lean_inc.exit21
  %.val.i26 = load i32, ptr %6, align 4, !tbaa !4
  %28 = icmp sgt i32 %.val.i26, 0
  br i1 %28, label %29, label %31, !prof !9

29:                                               ; preds = %27
  %30 = add nuw i32 %.val.i26, 1
  store i32 %30, ptr %6, align 4, !tbaa !4
  br label %lean_inc.exit

31:                                               ; preds = %27
  %.not.i27 = icmp eq i32 %.val.i26, 0
  br i1 %.not.i27, label %lean_inc.exit, label %32

32:                                               ; preds = %31
  tail call void @lean_inc_ref_cold(ptr noundef nonnull %6) #3
  br label %lean_inc.exit

lean_inc.exit:                                    ; preds = %32, %31, %29, %lean_inc.exit21
  tail call void @lean_inc_heartbeat() #3
  %33 = tail call noalias ptr @mi_malloc_small(i64 noundef 64) #3
  %34 = icmp eq ptr %33, null
  br i1 %34, label %35, label %lean_alloc_closure.exit

35:                                               ; preds = %lean_inc.exit
  tail call void @lean_internal_panic_out_of_memory() #4
  unreachable

lean_alloc_closure.exit:                          ; preds = %lean_inc.exit
  %36 = getelementptr inbounds nuw i8, ptr %33, i64 4
  store i32 1, ptr %33, align 4, !tbaa !4
  store i32 -184549312, ptr %36, align 4
  %37 = getelementptr inbounds nuw i8, ptr %33, i64 8
  store ptr @l_Lake_collectArgs___rarg___lambda__2, ptr %37, align 8, !tbaa !11
  %38 = getelementptr inbounds nuw i8, ptr %33, i64 16
  store i16 6, ptr %38, align 8, !tbaa !13
  %39 = getelementptr inbounds nuw i8, ptr %33, i64 18
  store i16 5, ptr %39, align 2, !tbaa !13
  %40 = getelementptr inbounds nuw i8, ptr %33, i64 24
  store ptr %0, ptr %40, align 8, !tbaa !11
  %41 = getelementptr inbounds nuw i8, ptr %33, i64 32
  store ptr %3, ptr %41, align 8, !tbaa !11
  %42 = getelementptr inbounds nuw i8, ptr %33, i64 40
  store ptr %1, ptr %42, align 8, !tbaa !11
  %43 = getelementptr inbounds nuw i8, ptr %33, i64 48
  store ptr %2, ptr %43, align 8, !tbaa !11
  %44 = getelementptr inbounds nuw i8, ptr %33, i64 56
  store ptr %6, ptr %44, align 8, !tbaa !11
  %45 = tail call ptr @lean_apply_4(ptr noundef %6, ptr noundef nonnull inttoptr (i64 1 to ptr), ptr noundef nonnull inttoptr (i64 1 to ptr), ptr noundef %26, ptr noundef nonnull %33) #3
  ret ptr %45
}